target datalayout = "e-m:e-p270:32:32-p271:32:32-p272:64:64-i64:64-i128:128-f80:128-n8:16:32:64-S128"
target triple = "x86_64-pc-linux-gnu"

%struct.PaddingTest = type { i64, i64 }

@stderr = external global ptr, align 8
@.str.90 = private unnamed_addr constant [32 x i8] c"Baseline ClientHello too long.\0A\00", align 1
@.str.91 = private unnamed_addr constant [49 x i8] c"%u-byte ClientHello padded to %u bytes, not %u.\0A\00", align 1

; Function Attrs: mustprogress uwtable
define internal noundef zeroext i1 @_ZL20TestPaddingExtensionv() #4 {
  %1 = alloca i1, align 1
  %2 = alloca i64, align 8
  %3 = alloca i32, align 4
  %4 = alloca ptr, align 8
  %5 = alloca ptr, align 8
  %6 = alloca ptr, align 8
  %7 = alloca ptr, align 8
  %8 = alloca i64, align 8
  call void @llvm.lifetime.start.p0(i64 8, ptr %2) #6
  %9 = call noundef i64 @_ZL17GetClientHelloLenm(i64 noundef 1)
  store i64 %9, ptr %2, align 8, !tbaa !45
  %10 = load i64, ptr %2, align 8, !tbaa !45
  %11 = icmp eq i64 %10, 0
  br i1 %11, label %12, label %13

12:                                               ; preds = %0
  store i1 false, ptr %1, align 1
  store i32 1, ptr %3, align 4
  br label %68

13:                                               ; preds = %0
  call void @llvm.lifetime.start.p0(i64 8, ptr %4) #6
  store ptr @_ZL13kPaddingTests, ptr %4, align 8, !tbaa !73
  call void @llvm.lifetime.start.p0(i64 8, ptr %5) #6
  store ptr @_ZL13kPaddingTests, ptr %5, align 8, !tbaa !73
  call void @llvm.lifetime.start.p0(i64 8, ptr %6) #6
  store ptr getelementptr inbounds (%struct.PaddingTest, ptr @_ZL13kPaddingTests, i64 11), ptr %6, align 8, !tbaa !73
  br label %14

14:                                               ; preds = %62, %13
  %15 = load ptr, ptr %5, align 8, !tbaa !73
  %16 = load ptr, ptr %6, align 8, !tbaa !73
  %17 = icmp ne ptr %15, %16
  br i1 %17, label %19, label %18

18:                                               ; preds = %14
  store i32 2, ptr %3, align 4
  br label %65

19:                                               ; preds = %14
  call void @llvm.lifetime.start.p0(i64 8, ptr %7) #6
  %20 = load ptr, ptr %5, align 8, !tbaa !73
  store ptr %20, ptr %7, align 8, !tbaa !73
  %21 = load i64, ptr %2, align 8, !tbaa !45
  %22 = load ptr, ptr %7, align 8, !tbaa !73
  %23 = getelementptr inbounds nuw %struct.PaddingTest, ptr %22, i32 0, i32 0
  %24 = load i64, ptr %23, align 8, !tbaa !75
  %25 = icmp ugt i64 %21, %24
  br i1 %25, label %26, label %29

26:                                               ; preds = %19
  %27 = load ptr, ptr @stderr, align 8, !tbaa !40
  %28 = call i32 (ptr, ptr, ...) @fprintf(ptr noundef %27, ptr noundef @.str.90) #6
  store i1 false, ptr %1, align 1
  store i32 1, ptr %3, align 4
  br label %59

29:                                               ; preds = %19
  call void @llvm.lifetime.start.p0(i64 8, ptr %8) #6
  %30 = load ptr, ptr %7, align 8, !tbaa !73
  %31 = getelementptr inbounds nuw %struct.PaddingTest, ptr %30, i32 0, i32 0
  %32 = load i64, ptr %31, align 8, !tbaa !75
  %33 = add i64 1, %32
  %34 = load i64, ptr %2, align 8, !tbaa !45
  %35 = sub i64 %33, %34
  %36 = call noundef i64 @_ZL17GetClientHelloLenm(i64 noundef %35)
  store i64 %36, ptr %8, align 8, !tbaa !45
  %37 = load i64, ptr %8, align 8, !tbaa !45
  %38 = load ptr, ptr %7, align 8, !tbaa !73
  %39 = getelementptr inbounds nuw %struct.PaddingTest, ptr %38, i32 0, i32 1
  %40 = load i64, ptr %39, align 8, !tbaa !77
  %41 = icmp ne i64 %37, %40
  br i1 %41, label %42, label %55

42:                                               ; preds = %29
  %43 = load ptr, ptr @stderr, align 8, !tbaa !40
  %44 = load ptr, ptr %7, align 8, !tbaa !73
  %45 = getelementptr inbounds nuw %struct.PaddingTest, ptr %44, i32 0, i32 0
  %46 = load i64, ptr %45, align 8, !tbaa !75
  %47 = trunc i64 %46 to i32
  %48 = load i64, ptr %8, align 8, !tbaa !45
  %49 = trunc i64 %48 to i32
  %50 = load ptr, ptr %7, align 8, !tbaa !73
  %51 = getelementptr inbounds nuw %struct.PaddingTest, ptr %50, i32 0, i32 1
  %52 = load i64, ptr %51, align 8, !tbaa !77
  %53 = trunc i64 %52 to i32
  %54 = call i32 (ptr, ptr, ...) @fprintf(ptr noundef %43, ptr noundef @.str.91, i32 noundef %47, i32 noundef %49, i32 noundef %53) #6
  store i1 false, ptr %1, align 1
  store i32 1, ptr %3, align 4
  br label %56

55:                                               ; preds = %29
  store i32 0, ptr %3, align 4
  br label %56

56:                                               ; preds = %55, %42
  call void @llvm.lifetime.end.p0(i64 8, ptr %8) #6
  %57 = load i32, ptr %3, align 4
  switch i32 %57, label %59 [
    i32 0, label %58
  ]

58:                                               ; preds = %56
  store i32 0, ptr %3, align 4
  br label %59

59:                                               ; preds = %58, %56, %26
  call void @llvm.lifetime.end.p0(i64 8, ptr %7) #6
  %60 = load i32, ptr %3, align 4
  switch i32 %60, label %65 [
    i32 0, label %61
  ]

61:                                               ; preds = %59
  br label %62

62:                                               ; preds = %61
  %63 = load ptr, ptr %5, align 8, !tbaa !73
  %64 = getelementptr inbounds nuw %struct.PaddingTest, ptr %63, i32 1
  store ptr %64, ptr %5, align 8, !tbaa !73
  br label %14

65:                                               ; preds = %59, %18
  call void @llvm.lifetime.end.p0(i64 8, ptr %6) #6
  call void @llvm.lifetime.end.p0(i64 8, ptr %5) #6
  call void @llvm.lifetime.end.p0(i64 8, ptr %4) #6
  %66 = load i32, ptr %3, align 4
  switch i32 %66, label %68 [
    i32 2, label %67
  ]

67:                                               ; preds = %65
  store i1 true, ptr %1, align 1
  store i32 1, ptr %3, align 4
  br label %68

68:                                               ; preds = %67, %65, %12
  call void @llvm.lifetime.end.p0(i64 8, ptr %2) #6
  %69 = load i1, ptr %1, align 1
  ret i1 %69
}